
wah:     file format elf64-x86-64


Disassembly of section .init:

0000000000401000 <_init>:
  401000:	f3 0f 1e fa          	endbr64 
  401004:	48 83 ec 08          	sub    $0x8,%rsp
  401008:	48 8b 05 e9 2f 00 00 	mov    0x2fe9(%rip),%rax        # 403ff8 <__gmon_start__>
  40100f:	48 85 c0             	test   %rax,%rax
  401012:	74 02                	je     401016 <_init+0x16>
  401014:	ff d0                	callq  *%rax
  401016:	48 83 c4 08          	add    $0x8,%rsp
  40101a:	c3                   	retq   

Disassembly of section .plt:

0000000000401020 <.plt>:
  401020:	ff 35 e2 2f 00 00    	pushq  0x2fe2(%rip)        # 404008 <_GLOBAL_OFFSET_TABLE_+0x8>
  401026:	f2 ff 25 e3 2f 00 00 	bnd jmpq *0x2fe3(%rip)        # 404010 <_GLOBAL_OFFSET_TABLE_+0x10>
  40102d:	0f 1f 00             	nopl   (%rax)
  401030:	f3 0f 1e fa          	endbr64 
  401034:	68 00 00 00 00       	pushq  $0x0
  401039:	f2 e9 e1 ff ff ff    	bnd jmpq 401020 <.plt>
  40103f:	90                   	nop
  401040:	f3 0f 1e fa          	endbr64 
  401044:	68 01 00 00 00       	pushq  $0x1
  401049:	f2 e9 d1 ff ff ff    	bnd jmpq 401020 <.plt>
  40104f:	90                   	nop
  401050:	f3 0f 1e fa          	endbr64 
  401054:	68 02 00 00 00       	pushq  $0x2
  401059:	f2 e9 c1 ff ff ff    	bnd jmpq 401020 <.plt>
  40105f:	90                   	nop
  401060:	f3 0f 1e fa          	endbr64 
  401064:	68 03 00 00 00       	pushq  $0x3
  401069:	f2 e9 b1 ff ff ff    	bnd jmpq 401020 <.plt>
  40106f:	90                   	nop
  401070:	f3 0f 1e fa          	endbr64 
  401074:	68 04 00 00 00       	pushq  $0x4
  401079:	f2 e9 a1 ff ff ff    	bnd jmpq 401020 <.plt>
  40107f:	90                   	nop
  401080:	f3 0f 1e fa          	endbr64 
  401084:	68 05 00 00 00       	pushq  $0x5
  401089:	f2 e9 91 ff ff ff    	bnd jmpq 401020 <.plt>
  40108f:	90                   	nop
  401090:	f3 0f 1e fa          	endbr64 
  401094:	68 06 00 00 00       	pushq  $0x6
  401099:	f2 e9 81 ff ff ff    	bnd jmpq 401020 <.plt>
  40109f:	90                   	nop
  4010a0:	f3 0f 1e fa          	endbr64 
  4010a4:	68 07 00 00 00       	pushq  $0x7
  4010a9:	f2 e9 71 ff ff ff    	bnd jmpq 401020 <.plt>
  4010af:	90                   	nop
  4010b0:	f3 0f 1e fa          	endbr64 
  4010b4:	68 08 00 00 00       	pushq  $0x8
  4010b9:	f2 e9 61 ff ff ff    	bnd jmpq 401020 <.plt>
  4010bf:	90                   	nop

Disassembly of section .plt.sec:

00000000004010c0 <puts@plt>:
  4010c0:	f3 0f 1e fa          	endbr64 
  4010c4:	f2 ff 25 4d 2f 00 00 	bnd jmpq *0x2f4d(%rip)        # 404018 <puts@GLIBC_2.2.5>
  4010cb:	0f 1f 44 00 00       	nopl   0x0(%rax,%rax,1)

00000000004010d0 <setresgid@plt>:
  4010d0:	f3 0f 1e fa          	endbr64 
  4010d4:	f2 ff 25 45 2f 00 00 	bnd jmpq *0x2f45(%rip)        # 404020 <setresgid@GLIBC_2.2.5>
  4010db:	0f 1f 44 00 00       	nopl   0x0(%rax,%rax,1)

00000000004010e0 <setbuf@plt>:
  4010e0:	f3 0f 1e fa          	endbr64 
  4010e4:	f2 ff 25 3d 2f 00 00 	bnd jmpq *0x2f3d(%rip)        # 404028 <setbuf@GLIBC_2.2.5>
  4010eb:	0f 1f 44 00 00       	nopl   0x0(%rax,%rax,1)

00000000004010f0 <printf@plt>:
  4010f0:	f3 0f 1e fa          	endbr64 
  4010f4:	f2 ff 25 35 2f 00 00 	bnd jmpq *0x2f35(%rip)        # 404030 <printf@GLIBC_2.2.5>
  4010fb:	0f 1f 44 00 00       	nopl   0x0(%rax,%rax,1)

0000000000401100 <fgets@plt>:
  401100:	f3 0f 1e fa          	endbr64 
  401104:	f2 ff 25 2d 2f 00 00 	bnd jmpq *0x2f2d(%rip)        # 404038 <fgets@GLIBC_2.2.5>
  40110b:	0f 1f 44 00 00       	nopl   0x0(%rax,%rax,1)

0000000000401110 <gets@plt>:
  401110:	f3 0f 1e fa          	endbr64 
  401114:	f2 ff 25 25 2f 00 00 	bnd jmpq *0x2f25(%rip)        # 404040 <gets@GLIBC_2.2.5>
  40111b:	0f 1f 44 00 00       	nopl   0x0(%rax,%rax,1)

0000000000401120 <getegid@plt>:
  401120:	f3 0f 1e fa          	endbr64 
  401124:	f2 ff 25 1d 2f 00 00 	bnd jmpq *0x2f1d(%rip)        # 404048 <getegid@GLIBC_2.2.5>
  40112b:	0f 1f 44 00 00       	nopl   0x0(%rax,%rax,1)

0000000000401130 <fopen@plt>:
  401130:	f3 0f 1e fa          	endbr64 
  401134:	f2 ff 25 15 2f 00 00 	bnd jmpq *0x2f15(%rip)        # 404050 <fopen@GLIBC_2.2.5>
  40113b:	0f 1f 44 00 00       	nopl   0x0(%rax,%rax,1)

0000000000401140 <exit@plt>:
  401140:	f3 0f 1e fa          	endbr64 
  401144:	f2 ff 25 0d 2f 00 00 	bnd jmpq *0x2f0d(%rip)        # 404058 <exit@GLIBC_2.2.5>
  40114b:	0f 1f 44 00 00       	nopl   0x0(%rax,%rax,1)

Disassembly of section .text:

0000000000401150 <_start>:
  401150:	f3 0f 1e fa          	endbr64 
  401154:	31 ed                	xor    %ebp,%ebp
  401156:	49 89 d1             	mov    %rdx,%r9
  401159:	5e                   	pop    %rsi
  40115a:	48 89 e2             	mov    %rsp,%rdx
  40115d:	48 83 e4 f0          	and    $0xfffffffffffffff0,%rsp
  401161:	50                   	push   %rax
  401162:	54                   	push   %rsp
  401163:	49 c7 c0 80 13 40 00 	mov    $0x401380,%r8
  40116a:	48 c7 c1 10 13 40 00 	mov    $0x401310,%rcx
  401171:	48 c7 c7 a3 12 40 00 	mov    $0x4012a3,%rdi
  401178:	ff 15 72 2e 00 00    	callq  *0x2e72(%rip)        # 403ff0 <__libc_start_main@GLIBC_2.2.5>
  40117e:	f4                   	hlt    
  40117f:	90                   	nop

0000000000401180 <_dl_relocate_static_pie>:
  401180:	f3 0f 1e fa          	endbr64 
  401184:	c3                   	retq   
  401185:	66 2e 0f 1f 84 00 00 	nopw   %cs:0x0(%rax,%rax,1)
  40118c:	00 00 00 
  40118f:	90                   	nop

0000000000401190 <deregister_tm_clones>:
  401190:	b8 70 40 40 00       	mov    $0x404070,%eax
  401195:	48 3d 70 40 40 00    	cmp    $0x404070,%rax
  40119b:	74 13                	je     4011b0 <deregister_tm_clones+0x20>
  40119d:	b8 00 00 00 00       	mov    $0x0,%eax
  4011a2:	48 85 c0             	test   %rax,%rax
  4011a5:	74 09                	je     4011b0 <deregister_tm_clones+0x20>
  4011a7:	bf 70 40 40 00       	mov    $0x404070,%edi
  4011ac:	ff e0                	jmpq   *%rax
  4011ae:	66 90                	xchg   %ax,%ax
  4011b0:	c3                   	retq   
  4011b1:	66 66 2e 0f 1f 84 00 	data16 nopw %cs:0x0(%rax,%rax,1)
  4011b8:	00 00 00 00 
  4011bc:	0f 1f 40 00          	nopl   0x0(%rax)

00000000004011c0 <register_tm_clones>:
  4011c0:	be 70 40 40 00       	mov    $0x404070,%esi
  4011c5:	48 81 ee 70 40 40 00 	sub    $0x404070,%rsi
  4011cc:	48 89 f0             	mov    %rsi,%rax
  4011cf:	48 c1 ee 3f          	shr    $0x3f,%rsi
  4011d3:	48 c1 f8 03          	sar    $0x3,%rax
  4011d7:	48 01 c6             	add    %rax,%rsi
  4011da:	48 d1 fe             	sar    %rsi
  4011dd:	74 11                	je     4011f0 <register_tm_clones+0x30>
  4011df:	b8 00 00 00 00       	mov    $0x0,%eax
  4011e4:	48 85 c0             	test   %rax,%rax
  4011e7:	74 07                	je     4011f0 <register_tm_clones+0x30>
  4011e9:	bf 70 40 40 00       	mov    $0x404070,%edi
  4011ee:	ff e0                	jmpq   *%rax
  4011f0:	c3                   	retq   
  4011f1:	66 66 2e 0f 1f 84 00 	data16 nopw %cs:0x0(%rax,%rax,1)
  4011f8:	00 00 00 00 
  4011fc:	0f 1f 40 00          	nopl   0x0(%rax)

0000000000401200 <__do_global_dtors_aux>:
  401200:	f3 0f 1e fa          	endbr64 
  401204:	80 3d 6d 2e 00 00 00 	cmpb   $0x0,0x2e6d(%rip)        # 404078 <completed.8061>
  40120b:	75 13                	jne    401220 <__do_global_dtors_aux+0x20>
  40120d:	55                   	push   %rbp
  40120e:	48 89 e5             	mov    %rsp,%rbp
  401211:	e8 7a ff ff ff       	callq  401190 <deregister_tm_clones>
  401216:	c6 05 5b 2e 00 00 01 	movb   $0x1,0x2e5b(%rip)        # 404078 <completed.8061>
  40121d:	5d                   	pop    %rbp
  40121e:	c3                   	retq   
  40121f:	90                   	nop
  401220:	c3                   	retq   
  401221:	66 66 2e 0f 1f 84 00 	data16 nopw %cs:0x0(%rax,%rax,1)
  401228:	00 00 00 00 
  40122c:	0f 1f 40 00          	nopl   0x0(%rax)

0000000000401230 <frame_dummy>:
  401230:	f3 0f 1e fa          	endbr64 
  401234:	eb 8a                	jmp    4011c0 <register_tm_clones>

0000000000401236 <flag>:
  401236:	f3 0f 1e fa          	endbr64 
  40123a:	55                   	push   %rbp
  40123b:	48 89 e5             	mov    %rsp,%rbp
  40123e:	48 81 ec 90 00 00 00 	sub    $0x90,%rsp
  401245:	48 8d 35 b8 0d 00 00 	lea    0xdb8(%rip),%rsi        # 402004 <_IO_stdin_used+0x4>
  40124c:	48 8d 3d b3 0d 00 00 	lea    0xdb3(%rip),%rdi        # 402006 <_IO_stdin_used+0x6>
  401253:	e8 d8 fe ff ff       	callq  401130 <fopen@plt>
  401258:	48 89 45 f8          	mov    %rax,-0x8(%rbp)
  40125c:	48 83 7d f8 00       	cmpq   $0x0,-0x8(%rbp)
  401261:	75 16                	jne    401279 <flag+0x43>
  401263:	48 8d 3d a5 0d 00 00 	lea    0xda5(%rip),%rdi        # 40200f <_IO_stdin_used+0xf>
  40126a:	e8 51 fe ff ff       	callq  4010c0 <puts@plt>
  40126f:	bf 01 00 00 00       	mov    $0x1,%edi
  401274:	e8 c7 fe ff ff       	callq  401140 <exit@plt>
  401279:	48 8b 55 f8          	mov    -0x8(%rbp),%rdx
  40127d:	48 8d 85 70 ff ff ff 	lea    -0x90(%rbp),%rax
  401284:	be 80 00 00 00       	mov    $0x80,%esi
  401289:	48 89 c7             	mov    %rax,%rdi
  40128c:	e8 6f fe ff ff       	callq  401100 <fgets@plt>
  401291:	48 8d 85 70 ff ff ff 	lea    -0x90(%rbp),%rax
  401298:	48 89 c7             	mov    %rax,%rdi
  40129b:	e8 20 fe ff ff       	callq  4010c0 <puts@plt>
  4012a0:	90                   	nop
  4012a1:	c9                   	leaveq 
  4012a2:	c3                   	retq   

00000000004012a3 <main>:
  4012a3:	f3 0f 1e fa          	endbr64 
  4012a7:	55                   	push   %rbp
  4012a8:	48 89 e5             	mov    %rsp,%rbp
  4012ab:	48 83 ec 20          	sub    $0x20,%rsp
  4012af:	48 8b 05 ba 2d 00 00 	mov    0x2dba(%rip),%rax        # 404070 <stdout@@GLIBC_2.2.5>
  4012b6:	be 00 00 00 00       	mov    $0x0,%esi
  4012bb:	48 89 c7             	mov    %rax,%rdi
  4012be:	e8 1d fe ff ff       	callq  4010e0 <setbuf@plt>
  4012c3:	b8 00 00 00 00       	mov    $0x0,%eax
  4012c8:	e8 53 fe ff ff       	callq  401120 <getegid@plt>
  4012cd:	89 45 fc             	mov    %eax,-0x4(%rbp)
  4012d0:	8b 55 fc             	mov    -0x4(%rbp),%edx
  4012d3:	8b 4d fc             	mov    -0x4(%rbp),%ecx
  4012d6:	8b 45 fc             	mov    -0x4(%rbp),%eax
  4012d9:	89 ce                	mov    %ecx,%esi
  4012db:	89 c7                	mov    %eax,%edi
  4012dd:	b8 00 00 00 00       	mov    $0x0,%eax
  4012e2:	e8 e9 fd ff ff       	callq  4010d0 <setresgid@plt>
  4012e7:	48 8d 3d 3a 0d 00 00 	lea    0xd3a(%rip),%rdi        # 402028 <_IO_stdin_used+0x28>
  4012ee:	b8 00 00 00 00       	mov    $0x0,%eax
  4012f3:	e8 f8 fd ff ff       	callq  4010f0 <printf@plt>
  4012f8:	48 8d 45 e0          	lea    -0x20(%rbp),%rax
  4012fc:	48 89 c7             	mov    %rax,%rdi
  4012ff:	b8 00 00 00 00       	mov    $0x0,%eax
  401304:	e8 07 fe ff ff       	callq  401110 <gets@plt>
  401309:	b8 00 00 00 00       	mov    $0x0,%eax
  40130e:	c9                   	leaveq 
  40130f:	c3                   	retq   

0000000000401310 <__libc_csu_init>:
  401310:	f3 0f 1e fa          	endbr64 
  401314:	41 57                	push   %r15
  401316:	4c 8d 3d f3 2a 00 00 	lea    0x2af3(%rip),%r15        # 403e10 <__frame_dummy_init_array_entry>
  40131d:	41 56                	push   %r14
  40131f:	49 89 d6             	mov    %rdx,%r14
  401322:	41 55                	push   %r13
  401324:	49 89 f5             	mov    %rsi,%r13
  401327:	41 54                	push   %r12
  401329:	41 89 fc             	mov    %edi,%r12d
  40132c:	55                   	push   %rbp
  40132d:	48 8d 2d e4 2a 00 00 	lea    0x2ae4(%rip),%rbp        # 403e18 <__do_global_dtors_aux_fini_array_entry>
  401334:	53                   	push   %rbx
  401335:	4c 29 fd             	sub    %r15,%rbp
  401338:	48 83 ec 08          	sub    $0x8,%rsp
  40133c:	e8 bf fc ff ff       	callq  401000 <_init>
  401341:	48 c1 fd 03          	sar    $0x3,%rbp
  401345:	74 1f                	je     401366 <__libc_csu_init+0x56>
  401347:	31 db                	xor    %ebx,%ebx
  401349:	0f 1f 80 00 00 00 00 	nopl   0x0(%rax)
  401350:	4c 89 f2             	mov    %r14,%rdx
  401353:	4c 89 ee             	mov    %r13,%rsi
  401356:	44 89 e7             	mov    %r12d,%edi
  401359:	41 ff 14 df          	callq  *(%r15,%rbx,8)
  40135d:	48 83 c3 01          	add    $0x1,%rbx
  401361:	48 39 dd             	cmp    %rbx,%rbp
  401364:	75 ea                	jne    401350 <__libc_csu_init+0x40>
  401366:	48 83 c4 08          	add    $0x8,%rsp
  40136a:	5b                   	pop    %rbx
  40136b:	5d                   	pop    %rbp
  40136c:	41 5c                	pop    %r12
  40136e:	41 5d                	pop    %r13
  401370:	41 5e                	pop    %r14
  401372:	41 5f                	pop    %r15
  401374:	c3                   	retq   
  401375:	66 66 2e 0f 1f 84 00 	data16 nopw %cs:0x0(%rax,%rax,1)
  40137c:	00 00 00 00 

0000000000401380 <__libc_csu_fini>:
  401380:	f3 0f 1e fa          	endbr64 
  401384:	c3                   	retq   

Disassembly of section .fini:

0000000000401388 <_fini>:
  401388:	f3 0f 1e fa          	endbr64 
  40138c:	48 83 ec 08          	sub    $0x8,%rsp
  401390:	48 83 c4 08          	add    $0x8,%rsp
  401394:	c3                   	retq   
